target datalayout = "e-m:e-p270:32:32-p271:32:32-p272:64:64-i64:64-i128:128-f80:128-n8:16:32:64-S128"
target triple = "x86_64-pc-linux-gnu"

%struct.ossl_param_st = type { ptr, i32, ptr, i64, i64 }

@bio_err = external global ptr, align 8
@self_test_log = internal global i32 1, align 4
@self_test_corrupt_desc = internal global ptr null, align 8
@self_test_corrupt_type = internal global ptr null, align 8
@.str.186 = private unnamed_addr constant [9 x i8] c"st-phase\00", align 1
@.str.187 = private unnamed_addr constant [8 x i8] c"st-desc\00", align 1
@.str.188 = private unnamed_addr constant [8 x i8] c"st-type\00", align 1
@.str.189 = private unnamed_addr constant [6 x i8] c"Start\00", align 1
@.str.190 = private unnamed_addr constant [13 x i8] c"%s : (%s) : \00", align 1
@.str.191 = private unnamed_addr constant [5 x i8] c"Pass\00", align 1
@.str.192 = private unnamed_addr constant [5 x i8] c"Fail\00", align 1
@.str.193 = private unnamed_addr constant [4 x i8] c"%s\0A\00", align 1
@.str.194 = private unnamed_addr constant [8 x i8] c"Corrupt\00", align 1
@.str.195 = private unnamed_addr constant [4 x i8] c"%s \00", align 1

; Function Attrs: nounwind uwtable
define internal i32 @self_test_events(ptr noundef %0, ptr noundef %1) #0 {
  %3 = alloca ptr, align 8
  %4 = alloca ptr, align 8
  %5 = alloca ptr, align 8
  %6 = alloca ptr, align 8
  %7 = alloca ptr, align 8
  %8 = alloca ptr, align 8
  %9 = alloca i32, align 4
  store ptr %0, ptr %3, align 8, !tbaa !29
  store ptr %1, ptr %4, align 8, !tbaa !31
  call void @llvm.lifetime.start.p0(i64 8, ptr %5) #6
  store ptr null, ptr %5, align 8, !tbaa !29
  call void @llvm.lifetime.start.p0(i64 8, ptr %6) #6
  store ptr null, ptr %6, align 8, !tbaa !11
  call void @llvm.lifetime.start.p0(i64 8, ptr %7) #6
  store ptr null, ptr %7, align 8, !tbaa !11
  call void @llvm.lifetime.start.p0(i64 8, ptr %8) #6
  store ptr null, ptr %8, align 8, !tbaa !11
  call void @llvm.lifetime.start.p0(i64 4, ptr %9) #6
  store i32 0, ptr %9, align 4, !tbaa !4
  %10 = load ptr, ptr %3, align 8, !tbaa !29
  %11 = call ptr @OSSL_PARAM_locate_const(ptr noundef %10, ptr noundef @.str.186)
  store ptr %11, ptr %5, align 8, !tbaa !29
  %12 = load ptr, ptr %5, align 8, !tbaa !29
  %13 = icmp eq ptr %12, null
  br i1 %13, label %19, label %14

14:                                               ; preds = %2
  %15 = load ptr, ptr %5, align 8, !tbaa !29
  %16 = getelementptr inbounds nuw %struct.ossl_param_st, ptr %15, i32 0, i32 1
  %17 = load i32, ptr %16, align 8, !tbaa !32
  %18 = icmp ne i32 %17, 4
  br i1 %18, label %19, label %20

19:                                               ; preds = %14, %2
  br label %111

20:                                               ; preds = %14
  %21 = load ptr, ptr %5, align 8, !tbaa !29
  %22 = getelementptr inbounds nuw %struct.ossl_param_st, ptr %21, i32 0, i32 2
  %23 = load ptr, ptr %22, align 8, !tbaa !34
  store ptr %23, ptr %6, align 8, !tbaa !11
  %24 = load ptr, ptr %3, align 8, !tbaa !29
  %25 = call ptr @OSSL_PARAM_locate_const(ptr noundef %24, ptr noundef @.str.187)
  store ptr %25, ptr %5, align 8, !tbaa !29
  %26 = load ptr, ptr %5, align 8, !tbaa !29
  %27 = icmp eq ptr %26, null
  br i1 %27, label %33, label %28

28:                                               ; preds = %20
  %29 = load ptr, ptr %5, align 8, !tbaa !29
  %30 = getelementptr inbounds nuw %struct.ossl_param_st, ptr %29, i32 0, i32 1
  %31 = load i32, ptr %30, align 8, !tbaa !32
  %32 = icmp ne i32 %31, 4
  br i1 %32, label %33, label %34

33:                                               ; preds = %28, %20
  br label %111

34:                                               ; preds = %28
  %35 = load ptr, ptr %5, align 8, !tbaa !29
  %36 = getelementptr inbounds nuw %struct.ossl_param_st, ptr %35, i32 0, i32 2
  %37 = load ptr, ptr %36, align 8, !tbaa !34
  store ptr %37, ptr %8, align 8, !tbaa !11
  %38 = load ptr, ptr %3, align 8, !tbaa !29
  %39 = call ptr @OSSL_PARAM_locate_const(ptr noundef %38, ptr noundef @.str.188)
  store ptr %39, ptr %5, align 8, !tbaa !29
  %40 = load ptr, ptr %5, align 8, !tbaa !29
  %41 = icmp eq ptr %40, null
  br i1 %41, label %47, label %42

42:                                               ; preds = %34
  %43 = load ptr, ptr %5, align 8, !tbaa !29
  %44 = getelementptr inbounds nuw %struct.ossl_param_st, ptr %43, i32 0, i32 1
  %45 = load i32, ptr %44, align 8, !tbaa !32
  %46 = icmp ne i32 %45, 4
  br i1 %46, label %47, label %48

47:                                               ; preds = %42, %34
  br label %111

48:                                               ; preds = %42
  %49 = load ptr, ptr %5, align 8, !tbaa !29
  %50 = getelementptr inbounds nuw %struct.ossl_param_st, ptr %49, i32 0, i32 2
  %51 = load ptr, ptr %50, align 8, !tbaa !34
  store ptr %51, ptr %7, align 8, !tbaa !11
  %52 = load i32, ptr @self_test_log, align 4, !tbaa !4
  %53 = icmp ne i32 %52, 0
  br i1 %53, label %54, label %77

54:                                               ; preds = %48
  %55 = load ptr, ptr %6, align 8, !tbaa !11
  %56 = call i32 @strcmp(ptr noundef %55, ptr noundef @.str.189) #7
  %57 = icmp eq i32 %56, 0
  br i1 %57, label %58, label %63

58:                                               ; preds = %54
  %59 = load ptr, ptr @bio_err, align 8, !tbaa !13
  %60 = load ptr, ptr %8, align 8, !tbaa !11
  %61 = load ptr, ptr %7, align 8, !tbaa !11
  %62 = call i32 (ptr, ptr, ...) @BIO_printf(ptr noundef %59, ptr noundef @.str.190, ptr noundef %60, ptr noundef %61)
  br label %76

63:                                               ; preds = %54
  %64 = load ptr, ptr %6, align 8, !tbaa !11
  %65 = call i32 @strcmp(ptr noundef %64, ptr noundef @.str.191) #7
  %66 = icmp eq i32 %65, 0
  br i1 %66, label %71, label %67

67:                                               ; preds = %63
  %68 = load ptr, ptr %6, align 8, !tbaa !11
  %69 = call i32 @strcmp(ptr noundef %68, ptr noundef @.str.192) #7
  %70 = icmp eq i32 %69, 0
  br i1 %70, label %71, label %75

71:                                               ; preds = %67, %63
  %72 = load ptr, ptr @bio_err, align 8, !tbaa !13
  %73 = load ptr, ptr %6, align 8, !tbaa !11
  %74 = call i32 (ptr, ptr, ...) @BIO_printf(ptr noundef %72, ptr noundef @.str.193, ptr noundef %73)
  br label %75

75:                                               ; preds = %71, %67
  br label %76

76:                                               ; preds = %75, %58
  br label %77

77:                                               ; preds = %76, %48
  %78 = load ptr, ptr %6, align 8, !tbaa !11
  %79 = call i32 @strcmp(ptr noundef %78, ptr noundef @.str.194) #7
  %80 = icmp eq i32 %79, 0
  br i1 %80, label %81, label %109

81:                                               ; preds = %77
  %82 = load ptr, ptr @self_test_corrupt_desc, align 8, !tbaa !11
  %83 = icmp ne ptr %82, null
  br i1 %83, label %87, label %84

84:                                               ; preds = %81
  %85 = load ptr, ptr @self_test_corrupt_type, align 8, !tbaa !11
  %86 = icmp ne ptr %85, null
  br i1 %86, label %87, label %109

87:                                               ; preds = %84, %81
  %88 = load ptr, ptr @self_test_corrupt_desc, align 8, !tbaa !11
  %89 = icmp ne ptr %88, null
  br i1 %89, label %90, label %96

90:                                               ; preds = %87
  %91 = load ptr, ptr @self_test_corrupt_desc, align 8, !tbaa !11
  %92 = load ptr, ptr %8, align 8, !tbaa !11
  %93 = call i32 @strcmp(ptr noundef %91, ptr noundef %92) #7
  %94 = icmp ne i32 %93, 0
  br i1 %94, label %95, label %96

95:                                               ; preds = %90
  br label %110

96:                                               ; preds = %90, %87
  %97 = load ptr, ptr @self_test_corrupt_type, align 8, !tbaa !11
  %98 = icmp ne ptr %97, null
  br i1 %98, label %99, label %105

99:                                               ; preds = %96
  %100 = load ptr, ptr @self_test_corrupt_type, align 8, !tbaa !11
  %101 = load ptr, ptr %7, align 8, !tbaa !11
  %102 = call i32 @strcmp(ptr noundef %100, ptr noundef %101) #7
  %103 = icmp ne i32 %102, 0
  br i1 %103, label %104, label %105

104:                                              ; preds = %99
  br label %110

105:                                              ; preds = %99, %96
  %106 = load ptr, ptr @bio_err, align 8, !tbaa !13
  %107 = load ptr, ptr %6, align 8, !tbaa !11
  %108 = call i32 (ptr, ptr, ...) @BIO_printf(ptr noundef %106, ptr noundef @.str.195, ptr noundef %107)
  br label %111

109:                                              ; preds = %84, %77
  br label %110

110:                                              ; preds = %109, %104, %95
  store i32 1, ptr %9, align 4, !tbaa !4
  br label %111

111:                                              ; preds = %110, %105, %47, %33, %19
  %112 = load i32, ptr %9, align 4, !tbaa !4
  call void @llvm.lifetime.end.p0(i64 4, ptr %9) #6
  call void @llvm.lifetime.end.p0(i64 8, ptr %8) #6
  call void @llvm.lifetime.end.p0(i64 8, ptr %7) #6
  call void @llvm.lifetime.end.p0(i64 8, ptr %6) #6
  call void @llvm.lifetime.end.p0(i64 8, ptr %5) #6
  ret i32 %112
}