; Function Attrs: nounwind uwtable
define internal range(i32 0, 2) i32 @self_test_events(ptr noundef %0, ptr readnone captures(none) %1) #0 {
  %3 = tail call ptr @OSSL_PARAM_locate_const(ptr noundef %0, ptr noundef nonnull @.str.186) #6
  %4 = icmp eq ptr %3, null
  br i1 %4, label %59, label %5

5:                                                ; preds = %2
  %6 = getelementptr inbounds nuw i8, ptr %3, i64 8
  %7 = load i32, ptr %6, align 8, !tbaa !18
  %.not = icmp eq i32 %7, 4
  br i1 %.not, label %8, label %59

8:                                                ; preds = %5
  %9 = getelementptr inbounds nuw i8, ptr %3, i64 16
  %10 = load ptr, ptr %9, align 8, !tbaa !20
  %11 = tail call ptr @OSSL_PARAM_locate_const(ptr noundef %0, ptr noundef nonnull @.str.187) #6
  %12 = icmp eq ptr %11, null
  br i1 %12, label %59, label %13

13:                                               ; preds = %8
  %14 = getelementptr inbounds nuw i8, ptr %11, i64 8
  %15 = load i32, ptr %14, align 8, !tbaa !18
  %.not28 = icmp eq i32 %15, 4
  br i1 %.not28, label %16, label %59

16:                                               ; preds = %13
  %17 = getelementptr inbounds nuw i8, ptr %11, i64 16
  %18 = load ptr, ptr %17, align 8, !tbaa !20
  %19 = tail call ptr @OSSL_PARAM_locate_const(ptr noundef %0, ptr noundef nonnull @.str.188) #6
  %20 = icmp eq ptr %19, null
  br i1 %20, label %59, label %21

21:                                               ; preds = %16
  %22 = getelementptr inbounds nuw i8, ptr %19, i64 8
  %23 = load i32, ptr %22, align 8, !tbaa !18
  %.not29 = icmp eq i32 %23, 4
  br i1 %.not29, label %24, label %59

24:                                               ; preds = %21
  %25 = getelementptr inbounds nuw i8, ptr %19, i64 16
  %26 = load ptr, ptr %25, align 8, !tbaa !20
  %.b = load i1, ptr @self_test_log, align 4
  br i1 %.b, label %42, label %27

27:                                               ; preds = %24
  %28 = tail call i32 @strcmp(ptr noundef nonnull dereferenceable(1) %10, ptr noundef nonnull dereferenceable(6) @.str.189) #7
  %29 = icmp eq i32 %28, 0
  br i1 %29, label %30, label %33

30:                                               ; preds = %27
  %31 = load ptr, ptr @bio_err, align 8, !tbaa !10
  %32 = tail call i32 (ptr, ptr, ...) @BIO_printf(ptr noundef %31, ptr noundef nonnull @.str.190, ptr noundef %18, ptr noundef %26) #6
  br label %42

33:                                               ; preds = %27
  %34 = tail call i32 @strcmp(ptr noundef nonnull dereferenceable(1) %10, ptr noundef nonnull dereferenceable(5) @.str.191) #7
  %35 = icmp eq i32 %34, 0
  br i1 %35, label %39, label %36

36:                                               ; preds = %33
  %37 = tail call i32 @strcmp(ptr noundef nonnull dereferenceable(1) %10, ptr noundef nonnull dereferenceable(5) @.str.192) #7
  %38 = icmp eq i32 %37, 0
  br i1 %38, label %39, label %42

39:                                               ; preds = %36, %33
  %40 = load ptr, ptr @bio_err, align 8, !tbaa !10
  %41 = tail call i32 (ptr, ptr, ...) @BIO_printf(ptr noundef %40, ptr noundef nonnull @.str.193, ptr noundef nonnull %10) #6
  br label %42

42:                                               ; preds = %30, %39, %36, %24
  %43 = tail call i32 @strcmp(ptr noundef nonnull dereferenceable(1) %10, ptr noundef nonnull dereferenceable(8) @.str.194) #7
  %44 = icmp eq i32 %43, 0
  br i1 %44, label %45, label %59

45:                                               ; preds = %42
  %46 = load ptr, ptr @self_test_corrupt_desc, align 8, !tbaa !14
  %47 = icmp ne ptr %46, null
  %48 = load ptr, ptr @self_test_corrupt_type, align 8
  %49 = icmp ne ptr %48, null
  %or.cond = select i1 %47, i1 true, i1 %49
  br i1 %or.cond, label %50, label %59

50:                                               ; preds = %45
  br i1 %47, label %51, label %53

51:                                               ; preds = %50
  %52 = tail call i32 @strcmp(ptr noundef nonnull dereferenceable(1) %46, ptr noundef nonnull dereferenceable(1) %18) #7
  %.not30 = icmp eq i32 %52, 0
  br i1 %.not30, label %53, label %59

53:                                               ; preds = %51, %50
  %.not31 = icmp eq ptr %48, null
  br i1 %.not31, label %56, label %54

54:                                               ; preds = %53
  %55 = tail call i32 @strcmp(ptr noundef nonnull dereferenceable(1) %48, ptr noundef nonnull dereferenceable(1) %26) #7
  %.not32 = icmp eq i32 %55, 0
  br i1 %.not32, label %56, label %59

56:                                               ; preds = %54, %53
  %57 = load ptr, ptr @bio_err, align 8, !tbaa !10
  %58 = tail call i32 (ptr, ptr, ...) @BIO_printf(ptr noundef %57, ptr noundef nonnull @.str.195, ptr noundef nonnull %10) #6
  br label %59

59:                                               ; preds = %51, %54, %45, %42, %16, %21, %8, %13, %2, %5, %56
  %.0 = phi i32 [ 0, %2 ], [ 0, %5 ], [ 0, %8 ], [ 0, %13 ], [ 0, %16 ], [ 0, %21 ], [ 0, %56 ], [ 1, %42 ], [ 1, %45 ], [ 1, %54 ], [ 1, %51 ]
  ret i32 %.0
}